target datalayout = "e-m:e-p270:32:32-p271:32:32-p272:64:64-i64:64-i128:128-f80:128-n8:16:32:64-S128"
target triple = "x86_64-pc-linux-gnu"

%struct.slab_automove_reg_t = type { ptr, ptr, ptr }
%struct.slab_rebal_thread = type { i8, i8, ptr, ptr, %union.pthread_mutex_t, %union.pthread_cond_t, i64, ptr, i32, %struct.timespec, ptr, ptr, %struct.slab_rebalance }
%union.pthread_mutex_t = type { %struct.__pthread_mutex_s }
%struct.__pthread_mutex_s = type { i32, i32, i32, i32, i32, i16, i16, %struct.__pthread_internal_list }
%struct.__pthread_internal_list = type { ptr, ptr }
%union.pthread_cond_t = type { %struct.__pthread_cond_s }
%struct.__pthread_cond_s = type { %union.__atomic_wide_counter, %union.__atomic_wide_counter, [2 x i32], [2 x i32], i32, i32, [2 x i32] }
%union.__atomic_wide_counter = type { i64 }
%struct.timespec = type { i64, i64 }
%struct.slab_rebalance = type { ptr, ptr, ptr, i32, i32, i32, i32, i32, i32, i32, i32, i32, i32, i8, ptr }

; Function Attrs: nounwind uwtable
define dso_local void @stop_slab_maintenance_thread(ptr noundef %0) #0 {
  %2 = alloca ptr, align 8
  store ptr %0, ptr %2, align 8, !tbaa !4
  %3 = load ptr, ptr %2, align 8, !tbaa !4
  %4 = getelementptr inbounds nuw %struct.slab_rebal_thread, ptr %3, i32 0, i32 4
  %5 = call i32 @pthread_mutex_lock(ptr noundef %4) #7
  %6 = load ptr, ptr %2, align 8, !tbaa !4
  %7 = getelementptr inbounds nuw %struct.slab_rebal_thread, ptr %6, i32 0, i32 0
  store i8 0, ptr %7, align 8, !tbaa !23
  %8 = load ptr, ptr %2, align 8, !tbaa !4
  %9 = getelementptr inbounds nuw %struct.slab_rebal_thread, ptr %8, i32 0, i32 5
  %10 = call i32 @pthread_cond_signal(ptr noundef %9) #7
  %11 = load ptr, ptr %2, align 8, !tbaa !4
  %12 = getelementptr inbounds nuw %struct.slab_rebal_thread, ptr %11, i32 0, i32 4
  %13 = call i32 @pthread_mutex_unlock(ptr noundef %12) #7
  %14 = load ptr, ptr %2, align 8, !tbaa !4
  %15 = getelementptr inbounds nuw %struct.slab_rebal_thread, ptr %14, i32 0, i32 6
  %16 = load i64, ptr %15, align 8, !tbaa !31
  %17 = call i32 @pthread_join(i64 noundef %16, ptr noundef null)
  %18 = load ptr, ptr %2, align 8, !tbaa !4
  %19 = getelementptr inbounds nuw %struct.slab_rebal_thread, ptr %18, i32 0, i32 4
  %20 = call i32 @pthread_mutex_destroy(ptr noundef %19) #7
  %21 = load ptr, ptr %2, align 8, !tbaa !4
  %22 = getelementptr inbounds nuw %struct.slab_rebal_thread, ptr %21, i32 0, i32 5
  %23 = call i32 @pthread_cond_destroy(ptr noundef %22) #7
  %24 = load ptr, ptr %2, align 8, !tbaa !4
  %25 = getelementptr inbounds nuw %struct.slab_rebal_thread, ptr %24, i32 0, i32 12
  %26 = getelementptr inbounds nuw %struct.slab_rebalance, ptr %25, i32 0, i32 14
  %27 = load ptr, ptr %26, align 8, !tbaa !44
  %28 = icmp ne ptr %27, null
  br i1 %28, label %29, label %34

29:                                               ; preds = %1
  %30 = load ptr, ptr %2, align 8, !tbaa !4
  %31 = getelementptr inbounds nuw %struct.slab_rebal_thread, ptr %30, i32 0, i32 12
  %32 = getelementptr inbounds nuw %struct.slab_rebalance, ptr %31, i32 0, i32 14
  %33 = load ptr, ptr %32, align 8, !tbaa !44
  call void @free(ptr noundef %33) #7
  br label %34

34:                                               ; preds = %29, %1
  %35 = load ptr, ptr %2, align 8, !tbaa !4
  %36 = getelementptr inbounds nuw %struct.slab_rebal_thread, ptr %35, i32 0, i32 10
  %37 = load ptr, ptr %36, align 8, !tbaa !25
  %38 = getelementptr inbounds nuw %struct.slab_automove_reg_t, ptr %37, i32 0, i32 1
  %39 = load ptr, ptr %38, align 8, !tbaa !45
  %40 = load ptr, ptr %2, align 8, !tbaa !4
  %41 = getelementptr inbounds nuw %struct.slab_rebal_thread, ptr %40, i32 0, i32 11
  %42 = load ptr, ptr %41, align 8, !tbaa !28
  call void %39(ptr noundef %42)
  %43 = load ptr, ptr %2, align 8, !tbaa !4
  call void @free(ptr noundef %43) #7
  ret void
}