; Function Attrs: nounwind uwtable
define dso_local void @stop_slab_maintenance_thread(ptr noundef %0) local_unnamed_addr #0 {
  %2 = getelementptr inbounds nuw i8, ptr %0, i64 24
  %3 = tail call i32 @pthread_mutex_lock(ptr noundef nonnull %2) #11
  store i8 0, ptr %0, align 8, !tbaa !19
  %4 = getelementptr inbounds nuw i8, ptr %0, i64 64
  %5 = tail call i32 @pthread_cond_signal(ptr noundef nonnull %4) #11
  %6 = tail call i32 @pthread_mutex_unlock(ptr noundef nonnull %2) #11
  %7 = getelementptr inbounds nuw i8, ptr %0, i64 112
  %8 = load i64, ptr %7, align 8, !tbaa !27
  %9 = tail call i32 @pthread_join(i64 noundef %8, ptr noundef null) #11
  %10 = tail call i32 @pthread_mutex_destroy(ptr noundef nonnull %2) #11
  %11 = tail call i32 @pthread_cond_destroy(ptr noundef nonnull %4) #11
  %12 = getelementptr inbounds nuw i8, ptr %0, i64 240
  %13 = load ptr, ptr %12, align 8, !tbaa !36
  %.not = icmp eq ptr %13, null
  br i1 %.not, label %15, label %14

14:                                               ; preds = %1
  tail call void @free(ptr noundef nonnull %13) #11
  br label %15

15:                                               ; preds = %14, %1
  %16 = getelementptr inbounds nuw i8, ptr %0, i64 152
  %17 = load ptr, ptr %16, align 8, !tbaa !21
  %18 = getelementptr inbounds nuw i8, ptr %17, i64 8
  %19 = load ptr, ptr %18, align 8, !tbaa !92
  %20 = getelementptr inbounds nuw i8, ptr %0, i64 160
  %21 = load ptr, ptr %20, align 8, !tbaa !24
  tail call void %19(ptr noundef %21) #11
  tail call void @free(ptr noundef nonnull %0) #11
  ret void
}